Certificate:
    Data:
        Version: 3 (0x2)
        Serial Number:
            fe:79:6c:90:d3:26:26:54
    Signature Algorithm: sha256WithRSAEncryption
        Issuer: C=US, ST=Washington, O=F5 Networks, OU=BD, CN=Demo/emailAddress=u.alonsocamaro@f5.com
        Validity
            Not Before: Dec 26 14:07:23 2017 GMT
            Not After : Dec 25 14:07:23 2020 GMT
        Subject: C=US, ST=Washington, O=F5 Networks, OU=BD, CN=Demo/emailAddress=u.alonsocamaro@f5.com
        Subject Public Key Info:
            Public Key Algorithm: rsaEncryption
                Public-Key: (2048 bit)
                Modulus:
                    00:c8:48:55:ec:c8:a7:1e:4d:93:94:38:96:6b:56:
                    cb:2c:30:f0:9d:88:82:e6:3b:8a:59:da:16:c9:69:
                    78:05:f5:1e:79:77:a1:14:ae:f7:46:d5:7f:9c:0d:
                    fd:0f:66:ae:70:b7:5f:71:bd:50:2f:d1:ea:f8:7c:
                    35:47:bc:f9:45:cc:5e:36:cf:b1:25:2a:52:d1:8d:
                    1f:f8:8a:98:2c:a2:27:34:7f:85:f2:0c:6f:38:fb:
                    bf:3f:f5:eb:d8:67:43:47:f1:38:ac:2a:d3:f2:78:
                    15:67:6e:cd:f1:32:a3:e1:da:ee:7b:81:4a:42:3f:
                    59:99:73:03:65:ee:69:61:6e:ac:e8:2b:53:66:44:
                    38:b9:42:cf:6e:d2:46:28:63:c6:20:9b:e4:50:ff:
                    b4:6c:95:f3:42:e4:25:23:30:54:79:32:94:d3:bc:
                    38:50:97:4d:a5:14:59:28:c8:cf:65:07:a4:c9:04:
                    82:ef:d6:d6:20:ef:2b:4d:32:32:81:4c:a8:27:0d:
                    7f:55:7b:6c:18:da:b0:6c:58:c0:07:b5:a7:2e:9f:
                    08:3e:95:7d:c5:29:55:29:97:d1:13:72:c4:81:cb:
                    90:f7:6f:85:ee:c6:7e:92:04:35:7a:c8:be:f4:26:
                    b2:0c:7a:db:9b:93:5d:94:2f:39:11:a3:f4:b6:88:
                    ae:b7
                Exponent: 65537 (0x10001)
        X509v3 extensions:
            X509v3 Subject Key Identifier: 
                ED:8C:C8:C2:68:9D:BA:AF:3B:33:0C:AF:AB:3A:CB:58:2A:5B:98:EB
            X509v3 Authority Key Identifier: 
                keyid:ED:8C:C8:C2:68:9D:BA:AF:3B:33:0C:AF:AB:3A:CB:58:2A:5B:98:EB

            X509v3 Basic Constraints: 
                CA:TRUE
    Signature Algorithm: sha256WithRSAEncryption
         8c:af:47:4e:71:ec:1a:a7:17:58:44:07:66:d2:6f:bd:1b:b5:
         9e:a6:28:b9:79:1e:f3:9b:24:39:c5:80:b1:44:ed:c1:94:bb:
         dd:3e:34:a7:0f:16:3e:25:b4:ef:af:08:bb:ec:1b:08:ff:6e:
         74:0a:52:7b:a9:d6:af:90:a7:bf:c7:e6:67:f9:7f:8b:33:b7:
         85:0f:24:f5:20:6d:b6:a2:c8:6a:60:16:df:e9:75:da:6b:80:
         25:78:48:28:17:f6:f6:07:1e:c5:46:1a:9b:23:e6:f2:75:ff:
         68:3e:6d:bf:4d:8e:6a:20:f9:6e:d7:d7:3e:ef:8b:5b:58:65:
         7f:95:84:e8:a4:d6:98:08:b8:08:49:04:0f:8a:a9:ea:d5:6b:
         5d:85:bf:3a:9f:5d:0d:54:a6:0d:c0:f3:f4:c9:f8:a1:20:db:
         f0:db:86:d7:ac:62:b4:e0:0e:89:ca:78:6b:d3:19:6a:e6:5e:
         e0:da:96:aa:e4:85:f5:7a:5c:89:ad:09:a9:7d:9d:9b:55:bc:
         15:8c:94:72:e4:8a:1d:94:cb:d9:e6:cd:eb:77:a8:88:7a:1b:
         af:f0:b2:0b:e1:a8:13:ff:3b:a4:c5:50:32:ca:09:24:0b:22:
         73:c4:be:46:40:1f:c7:62:b6:8c:bd:17:6b:e1:73:2f:46:ee:
         1e:fd:8d:b7
-----BEGIN CERTIFICATE-----
MIIDxzCCAq+gAwIBAgIJAP55bJDTJiZUMA0GCSqGSIb3DQEBCwUAMHoxCzAJBgNV
BAYTAlVTMRMwEQYDVQQIDApXYXNoaW5ndG9uMRQwEgYDVQQKDAtGNSBOZXR3b3Jr
czELMAkGA1UECwwCQkQxDTALBgNVBAMMBERlbW8xJDAiBgkqhkiG9w0BCQEWFXUu
YWxvbnNvY2FtYXJvQGY1LmNvbTAeFw0xNzEyMjYxNDA3MjNaFw0yMDEyMjUxNDA3
MjNaMHoxCzAJBgNVBAYTAlVTMRMwEQYDVQQIDApXYXNoaW5ndG9uMRQwEgYDVQQK
DAtGNSBOZXR3b3JrczELMAkGA1UECwwCQkQxDTALBgNVBAMMBERlbW8xJDAiBgkq
hkiG9w0BCQEWFXUuYWxvbnNvY2FtYXJvQGY1LmNvbTCCASIwDQYJKoZIhvcNAQEB
BQADggEPADCCAQoCggEBAMhIVezIpx5Nk5Q4lmtWyyww8J2IguY7ilnaFslpeAX1
Hnl3oRSu90bVf5wN/Q9mrnC3X3G9UC/R6vh8NUe8+UXMXjbPsSUqUtGNH/iKmCyi
JzR/hfIMbzj7vz/169hnQ0fxOKwq0/J4FWduzfEyo+Ha7nuBSkI/WZlzA2XuaWFu
rOgrU2ZEOLlCz27SRihjxiCb5FD/tGyV80LkJSMwVHkylNO8OFCXTaUUWSjIz2UH
pMkEgu/W1iDvK00yMoFMqCcNf1V7bBjasGxYwAe1py6fCD6VfcUpVSmX0RNyxIHL
kPdvhe7GfpIENXrIvvQmsgx625uTXZQvORGj9LaIrrcCAwEAAaNQME4wHQYDVR0O
BBYEFO2MyMJonbqvOzMMr6s6y1gqW5jrMB8GA1UdIwQYMBaAFO2MyMJonbqvOzMM
r6s6y1gqW5jrMAwGA1UdEwQFMAMBAf8wDQYJKoZIhvcNAQELBQADggEBAIyvR05x
7BqnF1hEB2bSb70btZ6mKLl5HvObJDnFgLFE7cGUu90+NKcPFj4ltO+vCLvsGwj/
bnQKUnup1q+Qp7/H5mf5f4szt4UPJPUgbbaiyGpgFt/pddprgCV4SCgX9vYHHsVG
Gpsj5vJ1/2g+bb9Njmog+W7X1z7vi1tYZX+VhOik1pgIuAhJBA+KqerVa12Fvzqf
XQ1Upg3A8/TJ+KEg2/DbhtesYrTgDonKeGvTGWrmXuDalqrkhfV6XImtCal9nZtV
vBWMlHLkih2Uy9nmzet3qIh6G6/wsgvhqBP/O6TFUDLKCSQLInPEvkZAH8ditoy9
F2vhcy9G7h79jbc=
-----END CERTIFICATE-----
